
Why_me:     file format elf32-i386


Disassembly of section .init:

00001000 <_init>:
    1000:	53                   	push   %ebx
    1001:	83 ec 08             	sub    $0x8,%esp
    1004:	e8 c7 00 00 00       	call   10d0 <__x86.get_pc_thunk.bx>
    1009:	81 c3 c3 2f 00 00    	add    $0x2fc3,%ebx
    100f:	8b 83 28 00 00 00    	mov    0x28(%ebx),%eax
    1015:	85 c0                	test   %eax,%eax
    1017:	74 02                	je     101b <_init+0x1b>
    1019:	ff d0                	call   *%eax
    101b:	83 c4 08             	add    $0x8,%esp
    101e:	5b                   	pop    %ebx
    101f:	c3                   	ret    

Disassembly of section .plt:

00001020 <.plt>:
    1020:	ff b3 04 00 00 00    	pushl  0x4(%ebx)
    1026:	ff a3 08 00 00 00    	jmp    *0x8(%ebx)
    102c:	00 00                	add    %al,(%eax)
	...

00001030 <strcmp@plt>:
    1030:	ff a3 0c 00 00 00    	jmp    *0xc(%ebx)
    1036:	68 00 00 00 00       	push   $0x0
    103b:	e9 e0 ff ff ff       	jmp    1020 <.plt>

00001040 <printf@plt>:
    1040:	ff a3 10 00 00 00    	jmp    *0x10(%ebx)
    1046:	68 08 00 00 00       	push   $0x8
    104b:	e9 d0 ff ff ff       	jmp    1020 <.plt>

00001050 <gets@plt>:
    1050:	ff a3 14 00 00 00    	jmp    *0x14(%ebx)
    1056:	68 10 00 00 00       	push   $0x10
    105b:	e9 c0 ff ff ff       	jmp    1020 <.plt>

00001060 <puts@plt>:
    1060:	ff a3 18 00 00 00    	jmp    *0x18(%ebx)
    1066:	68 18 00 00 00       	push   $0x18
    106b:	e9 b0 ff ff ff       	jmp    1020 <.plt>

00001070 <__libc_start_main@plt>:
    1070:	ff a3 1c 00 00 00    	jmp    *0x1c(%ebx)
    1076:	68 20 00 00 00       	push   $0x20
    107b:	e9 a0 ff ff ff       	jmp    1020 <.plt>

Disassembly of section .plt.got:

00001080 <__cxa_finalize@plt>:
    1080:	ff a3 24 00 00 00    	jmp    *0x24(%ebx)
    1086:	66 90                	xchg   %ax,%ax

Disassembly of section .text:

00001090 <_start>:
    1090:	31 ed                	xor    %ebp,%ebp
    1092:	5e                   	pop    %esi
    1093:	89 e1                	mov    %esp,%ecx
    1095:	83 e4 f0             	and    $0xfffffff0,%esp
    1098:	50                   	push   %eax
    1099:	54                   	push   %esp
    109a:	52                   	push   %edx
    109b:	e8 22 00 00 00       	call   10c2 <_start+0x32>
    10a0:	81 c3 2c 2f 00 00    	add    $0x2f2c,%ebx
    10a6:	8d 83 a4 d5 ff ff    	lea    -0x2a5c(%ebx),%eax
    10ac:	50                   	push   %eax
    10ad:	8d 83 44 d5 ff ff    	lea    -0x2abc(%ebx),%eax
    10b3:	50                   	push   %eax
    10b4:	51                   	push   %ecx
    10b5:	56                   	push   %esi
    10b6:	ff b3 2c 00 00 00    	pushl  0x2c(%ebx)
    10bc:	e8 af ff ff ff       	call   1070 <__libc_start_main@plt>
    10c1:	f4                   	hlt    
    10c2:	8b 1c 24             	mov    (%esp),%ebx
    10c5:	c3                   	ret    
    10c6:	66 90                	xchg   %ax,%ax
    10c8:	66 90                	xchg   %ax,%ax
    10ca:	66 90                	xchg   %ax,%ax
    10cc:	66 90                	xchg   %ax,%ax
    10ce:	66 90                	xchg   %ax,%ax

000010d0 <__x86.get_pc_thunk.bx>:
    10d0:	8b 1c 24             	mov    (%esp),%ebx
    10d3:	c3                   	ret    
    10d4:	66 90                	xchg   %ax,%ax
    10d6:	66 90                	xchg   %ax,%ax
    10d8:	66 90                	xchg   %ax,%ax
    10da:	66 90                	xchg   %ax,%ax
    10dc:	66 90                	xchg   %ax,%ax
    10de:	66 90                	xchg   %ax,%ax

000010e0 <deregister_tm_clones>:
    10e0:	e8 e0 00 00 00       	call   11c5 <__x86.get_pc_thunk.dx>
    10e5:	81 c2 e7 2e 00 00    	add    $0x2ee7,%edx
    10eb:	8d 8a 3c 00 00 00    	lea    0x3c(%edx),%ecx
    10f1:	8d 82 3c 00 00 00    	lea    0x3c(%edx),%eax
    10f7:	39 c8                	cmp    %ecx,%eax
    10f9:	74 1d                	je     1118 <deregister_tm_clones+0x38>
    10fb:	8b 82 20 00 00 00    	mov    0x20(%edx),%eax
    1101:	85 c0                	test   %eax,%eax
    1103:	74 13                	je     1118 <deregister_tm_clones+0x38>
    1105:	55                   	push   %ebp
    1106:	89 e5                	mov    %esp,%ebp
    1108:	83 ec 14             	sub    $0x14,%esp
    110b:	51                   	push   %ecx
    110c:	ff d0                	call   *%eax
    110e:	83 c4 10             	add    $0x10,%esp
    1111:	c9                   	leave  
    1112:	c3                   	ret    
    1113:	8d 74 26 00          	lea    0x0(%esi,%eiz,1),%esi
    1117:	90                   	nop
    1118:	c3                   	ret    
    1119:	8d b4 26 00 00 00 00 	lea    0x0(%esi,%eiz,1),%esi

00001120 <register_tm_clones>:
    1120:	e8 a0 00 00 00       	call   11c5 <__x86.get_pc_thunk.dx>
    1125:	81 c2 a7 2e 00 00    	add    $0x2ea7,%edx
    112b:	55                   	push   %ebp
    112c:	89 e5                	mov    %esp,%ebp
    112e:	53                   	push   %ebx
    112f:	8d 8a 3c 00 00 00    	lea    0x3c(%edx),%ecx
    1135:	8d 82 3c 00 00 00    	lea    0x3c(%edx),%eax
    113b:	83 ec 04             	sub    $0x4,%esp
    113e:	29 c8                	sub    %ecx,%eax
    1140:	c1 f8 02             	sar    $0x2,%eax
    1143:	89 c3                	mov    %eax,%ebx
    1145:	c1 eb 1f             	shr    $0x1f,%ebx
    1148:	01 d8                	add    %ebx,%eax
    114a:	d1 f8                	sar    %eax
    114c:	74 14                	je     1162 <register_tm_clones+0x42>
    114e:	8b 92 30 00 00 00    	mov    0x30(%edx),%edx
    1154:	85 d2                	test   %edx,%edx
    1156:	74 0a                	je     1162 <register_tm_clones+0x42>
    1158:	83 ec 08             	sub    $0x8,%esp
    115b:	50                   	push   %eax
    115c:	51                   	push   %ecx
    115d:	ff d2                	call   *%edx
    115f:	83 c4 10             	add    $0x10,%esp
    1162:	8b 5d fc             	mov    -0x4(%ebp),%ebx
    1165:	c9                   	leave  
    1166:	c3                   	ret    
    1167:	8d b4 26 00 00 00 00 	lea    0x0(%esi,%eiz,1),%esi
    116e:	66 90                	xchg   %ax,%ax

00001170 <__do_global_dtors_aux>:
    1170:	55                   	push   %ebp
    1171:	89 e5                	mov    %esp,%ebp
    1173:	53                   	push   %ebx
    1174:	e8 57 ff ff ff       	call   10d0 <__x86.get_pc_thunk.bx>
    1179:	81 c3 53 2e 00 00    	add    $0x2e53,%ebx
    117f:	83 ec 04             	sub    $0x4,%esp
    1182:	80 bb 3c 00 00 00 00 	cmpb   $0x0,0x3c(%ebx)
    1189:	75 27                	jne    11b2 <__do_global_dtors_aux+0x42>
    118b:	8b 83 24 00 00 00    	mov    0x24(%ebx),%eax
    1191:	85 c0                	test   %eax,%eax
    1193:	74 11                	je     11a6 <__do_global_dtors_aux+0x36>
    1195:	83 ec 0c             	sub    $0xc,%esp
    1198:	ff b3 38 00 00 00    	pushl  0x38(%ebx)
    119e:	e8 dd fe ff ff       	call   1080 <__cxa_finalize@plt>
    11a3:	83 c4 10             	add    $0x10,%esp
    11a6:	e8 35 ff ff ff       	call   10e0 <deregister_tm_clones>
    11ab:	c6 83 3c 00 00 00 01 	movb   $0x1,0x3c(%ebx)
    11b2:	8b 5d fc             	mov    -0x4(%ebp),%ebx
    11b5:	c9                   	leave  
    11b6:	c3                   	ret    
    11b7:	8d b4 26 00 00 00 00 	lea    0x0(%esi,%eiz,1),%esi
    11be:	66 90                	xchg   %ax,%ax

000011c0 <frame_dummy>:
    11c0:	e9 5b ff ff ff       	jmp    1120 <register_tm_clones>

000011c5 <__x86.get_pc_thunk.dx>:
    11c5:	8b 14 24             	mov    (%esp),%edx
    11c8:	c3                   	ret    

000011c9 <main>:
    11c9:	8d 4c 24 04          	lea    0x4(%esp),%ecx
    11cd:	83 e4 f0             	and    $0xfffffff0,%esp
    11d0:	ff 71 fc             	pushl  -0x4(%ecx)
    11d3:	55                   	push   %ebp
    11d4:	89 e5                	mov    %esp,%ebp
    11d6:	56                   	push   %esi
    11d7:	53                   	push   %ebx
    11d8:	51                   	push   %ecx
    11d9:	83 ec 7c             	sub    $0x7c,%esp
    11dc:	e8 ef fe ff ff       	call   10d0 <__x86.get_pc_thunk.bx>
    11e1:	81 c3 eb 2d 00 00    	add    $0x2deb,%ebx
    11e7:	c7 45 97 54 68 33 5f 	movl   $0x5f336854,-0x69(%ebp)
    11ee:	c7 45 9b 53 33 63 72 	movl   $0x72633353,-0x65(%ebp)
    11f5:	c7 45 9f 33 74 5f 43 	movl   $0x435f7433,-0x61(%ebp)
    11fc:	c7 45 a3 30 64 33 21 	movl   $0x21336430,-0x5d(%ebp)
    1203:	c6 45 a7 00          	movb   $0x0,-0x59(%ebp)
    1207:	83 ec 0c             	sub    $0xc,%esp
    120a:	8d 83 3c e0 ff ff    	lea    -0x1fc4(%ebx),%eax
    1210:	50                   	push   %eax
    1211:	e8 4a fe ff ff       	call   1060 <puts@plt>
    1216:	83 c4 10             	add    $0x10,%esp
    1219:	83 ec 0c             	sub    $0xc,%esp
    121c:	8d 45 a8             	lea    -0x58(%ebp),%eax
    121f:	50                   	push   %eax
    1220:	e8 2b fe ff ff       	call   1050 <gets@plt>
    1225:	83 c4 10             	add    $0x10,%esp
    1228:	83 ec 08             	sub    $0x8,%esp
    122b:	8d 45 97             	lea    -0x69(%ebp),%eax
    122e:	50                   	push   %eax
    122f:	8d 45 a8             	lea    -0x58(%ebp),%eax
    1232:	50                   	push   %eax
    1233:	e8 f8 fd ff ff       	call   1030 <strcmp@plt>
    1238:	83 c4 10             	add    $0x10,%esp
    123b:	85 c0                	test   %eax,%eax
    123d:	0f 85 a6 02 00 00    	jne    14e9 <main+0x320>
    1243:	8d 85 7c ff ff ff    	lea    -0x84(%ebp),%eax
    1249:	b9 00 00 00 00       	mov    $0x0,%ecx
    124e:	ba 1b 00 00 00       	mov    $0x1b,%edx
    1253:	89 d6                	mov    %edx,%esi
    1255:	83 e6 fc             	and    $0xfffffffc,%esi
    1258:	ba 00 00 00 00       	mov    $0x0,%edx
    125d:	89 8c 15 7c ff ff ff 	mov    %ecx,-0x84(%ebp,%edx,1)
    1264:	83 c2 04             	add    $0x4,%edx
    1267:	39 f2                	cmp    %esi,%edx
    1269:	72 f2                	jb     125d <main+0x94>
    126b:	01 d0                	add    %edx,%eax
    126d:	66 89 08             	mov    %cx,(%eax)
    1270:	83 c0 02             	add    $0x2,%eax
    1273:	88 08                	mov    %cl,(%eax)
    1275:	83 c0 01             	add    $0x1,%eax
    1278:	c6 85 7c ff ff ff 59 	movb   $0x59,-0x84(%ebp)
    127f:	c6 85 7d ff ff ff 30 	movb   $0x30,-0x83(%ebp)
    1286:	c6 85 7e ff ff ff 75 	movb   $0x75,-0x82(%ebp)
    128d:	c6 85 7f ff ff ff 43 	movb   $0x43,-0x81(%ebp)
    1294:	c6 45 80 34          	movb   $0x34,-0x80(%ebp)
    1298:	c6 45 81 6e          	movb   $0x6e,-0x7f(%ebp)
    129c:	c6 45 82 52          	movb   $0x52,-0x7e(%ebp)
    12a0:	c6 45 83 75          	movb   $0x75,-0x7d(%ebp)
    12a4:	c6 45 84 6e          	movb   $0x6e,-0x7c(%ebp)
    12a8:	c6 45 85 42          	movb   $0x42,-0x7b(%ebp)
    12ac:	c6 45 86 75          	movb   $0x75,-0x7a(%ebp)
    12b0:	c6 45 87 74          	movb   $0x74,-0x79(%ebp)
    12b4:	c6 45 88 59          	movb   $0x59,-0x78(%ebp)
    12b8:	c6 45 89 30          	movb   $0x30,-0x77(%ebp)
    12bc:	c6 45 8a 75          	movb   $0x75,-0x76(%ebp)
    12c0:	c6 45 8b 43          	movb   $0x43,-0x75(%ebp)
    12c4:	c6 45 8c 34          	movb   $0x34,-0x74(%ebp)
    12c8:	c6 45 8d 6e          	movb   $0x6e,-0x73(%ebp)
    12cc:	c6 45 8e 4e          	movb   $0x4e,-0x72(%ebp)
    12d0:	c6 45 8f 30          	movb   $0x30,-0x71(%ebp)
    12d4:	c6 45 90 74          	movb   $0x74,-0x70(%ebp)
    12d8:	c6 45 91 48          	movb   $0x48,-0x6f(%ebp)
    12dc:	c6 45 92 69          	movb   $0x69,-0x6e(%ebp)
    12e0:	c6 45 93 64          	movb   $0x64,-0x6d(%ebp)
    12e4:	c6 45 94 33          	movb   $0x33,-0x6c(%ebp)
    12e8:	83 ec 0c             	sub    $0xc,%esp
    12eb:	8d 83 56 e0 ff ff    	lea    -0x1faa(%ebx),%eax
    12f1:	50                   	push   %eax
    12f2:	e8 69 fd ff ff       	call   1060 <puts@plt>
    12f7:	83 c4 10             	add    $0x10,%esp
    12fa:	83 ec 0c             	sub    $0xc,%esp
    12fd:	8d 83 6f e0 ff ff    	lea    -0x1f91(%ebx),%eax
    1303:	50                   	push   %eax
    1304:	e8 57 fd ff ff       	call   1060 <puts@plt>
    1309:	83 c4 10             	add    $0x10,%esp
    130c:	83 ec 0c             	sub    $0xc,%esp
    130f:	8d 83 90 e0 ff ff    	lea    -0x1f70(%ebx),%eax
    1315:	50                   	push   %eax
    1316:	e8 45 fd ff ff       	call   1060 <puts@plt>
    131b:	83 c4 10             	add    $0x10,%esp
    131e:	83 ec 0c             	sub    $0xc,%esp
    1321:	8d 83 b8 e0 ff ff    	lea    -0x1f48(%ebx),%eax
    1327:	50                   	push   %eax
    1328:	e8 33 fd ff ff       	call   1060 <puts@plt>
    132d:	83 c4 10             	add    $0x10,%esp
    1330:	83 ec 0c             	sub    $0xc,%esp
    1333:	8d 83 e8 e0 ff ff    	lea    -0x1f18(%ebx),%eax
    1339:	50                   	push   %eax
    133a:	e8 21 fd ff ff       	call   1060 <puts@plt>
    133f:	83 c4 10             	add    $0x10,%esp
    1342:	83 ec 0c             	sub    $0xc,%esp
    1345:	8d 83 18 e1 ff ff    	lea    -0x1ee8(%ebx),%eax
    134b:	50                   	push   %eax
    134c:	e8 0f fd ff ff       	call   1060 <puts@plt>
    1351:	83 c4 10             	add    $0x10,%esp
    1354:	83 ec 0c             	sub    $0xc,%esp
    1357:	8d 83 48 e1 ff ff    	lea    -0x1eb8(%ebx),%eax
    135d:	50                   	push   %eax
    135e:	e8 fd fc ff ff       	call   1060 <puts@plt>
    1363:	83 c4 10             	add    $0x10,%esp
    1366:	83 ec 0c             	sub    $0xc,%esp
    1369:	8d 83 78 e1 ff ff    	lea    -0x1e88(%ebx),%eax
    136f:	50                   	push   %eax
    1370:	e8 eb fc ff ff       	call   1060 <puts@plt>
    1375:	83 c4 10             	add    $0x10,%esp
    1378:	83 ec 0c             	sub    $0xc,%esp
    137b:	8d 83 a8 e1 ff ff    	lea    -0x1e58(%ebx),%eax
    1381:	50                   	push   %eax
    1382:	e8 d9 fc ff ff       	call   1060 <puts@plt>
    1387:	83 c4 10             	add    $0x10,%esp
    138a:	83 ec 0c             	sub    $0xc,%esp
    138d:	8d 83 d8 e1 ff ff    	lea    -0x1e28(%ebx),%eax
    1393:	50                   	push   %eax
    1394:	e8 c7 fc ff ff       	call   1060 <puts@plt>
    1399:	83 c4 10             	add    $0x10,%esp
    139c:	83 ec 0c             	sub    $0xc,%esp
    139f:	8d 83 08 e2 ff ff    	lea    -0x1df8(%ebx),%eax
    13a5:	50                   	push   %eax
    13a6:	e8 b5 fc ff ff       	call   1060 <puts@plt>
    13ab:	83 c4 10             	add    $0x10,%esp
    13ae:	83 ec 0c             	sub    $0xc,%esp
    13b1:	8d 83 38 e2 ff ff    	lea    -0x1dc8(%ebx),%eax
    13b7:	50                   	push   %eax
    13b8:	e8 a3 fc ff ff       	call   1060 <puts@plt>
    13bd:	83 c4 10             	add    $0x10,%esp
    13c0:	83 ec 0c             	sub    $0xc,%esp
    13c3:	8d 83 68 e2 ff ff    	lea    -0x1d98(%ebx),%eax
    13c9:	50                   	push   %eax
    13ca:	e8 91 fc ff ff       	call   1060 <puts@plt>
    13cf:	83 c4 10             	add    $0x10,%esp
    13d2:	83 ec 0c             	sub    $0xc,%esp
    13d5:	8d 83 98 e2 ff ff    	lea    -0x1d68(%ebx),%eax
    13db:	50                   	push   %eax
    13dc:	e8 7f fc ff ff       	call   1060 <puts@plt>
    13e1:	83 c4 10             	add    $0x10,%esp
    13e4:	83 ec 0c             	sub    $0xc,%esp
    13e7:	8d 83 c8 e2 ff ff    	lea    -0x1d38(%ebx),%eax
    13ed:	50                   	push   %eax
    13ee:	e8 6d fc ff ff       	call   1060 <puts@plt>
    13f3:	83 c4 10             	add    $0x10,%esp
    13f6:	83 ec 0c             	sub    $0xc,%esp
    13f9:	8d 83 f4 e2 ff ff    	lea    -0x1d0c(%ebx),%eax
    13ff:	50                   	push   %eax
    1400:	e8 5b fc ff ff       	call   1060 <puts@plt>
    1405:	83 c4 10             	add    $0x10,%esp
    1408:	83 ec 0c             	sub    $0xc,%esp
    140b:	8d 83 24 e3 ff ff    	lea    -0x1cdc(%ebx),%eax
    1411:	50                   	push   %eax
    1412:	e8 49 fc ff ff       	call   1060 <puts@plt>
    1417:	83 c4 10             	add    $0x10,%esp
    141a:	83 ec 0c             	sub    $0xc,%esp
    141d:	8d 83 54 e3 ff ff    	lea    -0x1cac(%ebx),%eax
    1423:	50                   	push   %eax
    1424:	e8 37 fc ff ff       	call   1060 <puts@plt>
    1429:	83 c4 10             	add    $0x10,%esp
    142c:	83 ec 0c             	sub    $0xc,%esp
    142f:	8d 83 84 e3 ff ff    	lea    -0x1c7c(%ebx),%eax
    1435:	50                   	push   %eax
    1436:	e8 25 fc ff ff       	call   1060 <puts@plt>
    143b:	83 c4 10             	add    $0x10,%esp
    143e:	83 ec 0c             	sub    $0xc,%esp
    1441:	8d 83 b4 e3 ff ff    	lea    -0x1c4c(%ebx),%eax
    1447:	50                   	push   %eax
    1448:	e8 13 fc ff ff       	call   1060 <puts@plt>
    144d:	83 c4 10             	add    $0x10,%esp
    1450:	83 ec 0c             	sub    $0xc,%esp
    1453:	8d 83 e4 e3 ff ff    	lea    -0x1c1c(%ebx),%eax
    1459:	50                   	push   %eax
    145a:	e8 01 fc ff ff       	call   1060 <puts@plt>
    145f:	83 c4 10             	add    $0x10,%esp
    1462:	83 ec 0c             	sub    $0xc,%esp
    1465:	8d 83 14 e4 ff ff    	lea    -0x1bec(%ebx),%eax
    146b:	50                   	push   %eax
    146c:	e8 ef fb ff ff       	call   1060 <puts@plt>
    1471:	83 c4 10             	add    $0x10,%esp
    1474:	83 ec 0c             	sub    $0xc,%esp
    1477:	8d 83 44 e4 ff ff    	lea    -0x1bbc(%ebx),%eax
    147d:	50                   	push   %eax
    147e:	e8 dd fb ff ff       	call   1060 <puts@plt>
    1483:	83 c4 10             	add    $0x10,%esp
    1486:	83 ec 0c             	sub    $0xc,%esp
    1489:	8d 83 74 e4 ff ff    	lea    -0x1b8c(%ebx),%eax
    148f:	50                   	push   %eax
    1490:	e8 cb fb ff ff       	call   1060 <puts@plt>
    1495:	83 c4 10             	add    $0x10,%esp
    1498:	83 ec 0c             	sub    $0xc,%esp
    149b:	8d 83 a4 e4 ff ff    	lea    -0x1b5c(%ebx),%eax
    14a1:	50                   	push   %eax
    14a2:	e8 b9 fb ff ff       	call   1060 <puts@plt>
    14a7:	83 c4 10             	add    $0x10,%esp
    14aa:	83 ec 0c             	sub    $0xc,%esp
    14ad:	8d 83 d4 e4 ff ff    	lea    -0x1b2c(%ebx),%eax
    14b3:	50                   	push   %eax
    14b4:	e8 a7 fb ff ff       	call   1060 <puts@plt>
    14b9:	83 c4 10             	add    $0x10,%esp
    14bc:	83 ec 08             	sub    $0x8,%esp
    14bf:	8d 85 7c ff ff ff    	lea    -0x84(%ebp),%eax
    14c5:	50                   	push   %eax
    14c6:	8d 83 03 e5 ff ff    	lea    -0x1afd(%ebx),%eax
    14cc:	50                   	push   %eax
    14cd:	e8 6e fb ff ff       	call   1040 <printf@plt>
    14d2:	83 c4 10             	add    $0x10,%esp
    14d5:	83 ec 0c             	sub    $0xc,%esp
    14d8:	8d 83 12 e5 ff ff    	lea    -0x1aee(%ebx),%eax
    14de:	50                   	push   %eax
    14df:	e8 7c fb ff ff       	call   1060 <puts@plt>
    14e4:	83 c4 10             	add    $0x10,%esp
    14e7:	eb 12                	jmp    14fb <main+0x332>
    14e9:	83 ec 0c             	sub    $0xc,%esp
    14ec:	8d 83 1a e5 ff ff    	lea    -0x1ae6(%ebx),%eax
    14f2:	50                   	push   %eax
    14f3:	e8 68 fb ff ff       	call   1060 <puts@plt>
    14f8:	83 c4 10             	add    $0x10,%esp
    14fb:	b8 00 00 00 00       	mov    $0x0,%eax
    1500:	8d 65 f4             	lea    -0xc(%ebp),%esp
    1503:	59                   	pop    %ecx
    1504:	5b                   	pop    %ebx
    1505:	5e                   	pop    %esi
    1506:	5d                   	pop    %ebp
    1507:	8d 61 fc             	lea    -0x4(%ecx),%esp
    150a:	c3                   	ret    
    150b:	66 90                	xchg   %ax,%ax
    150d:	66 90                	xchg   %ax,%ax
    150f:	90                   	nop

00001510 <__libc_csu_init>:
    1510:	55                   	push   %ebp
    1511:	57                   	push   %edi
    1512:	56                   	push   %esi
    1513:	53                   	push   %ebx
    1514:	e8 b7 fb ff ff       	call   10d0 <__x86.get_pc_thunk.bx>
    1519:	81 c3 b3 2a 00 00    	add    $0x2ab3,%ebx
    151f:	83 ec 0c             	sub    $0xc,%esp
    1522:	8b 6c 24 28          	mov    0x28(%esp),%ebp
    1526:	e8 d5 fa ff ff       	call   1000 <_init>
    152b:	8d b3 04 ff ff ff    	lea    -0xfc(%ebx),%esi
    1531:	8d 83 00 ff ff ff    	lea    -0x100(%ebx),%eax
    1537:	29 c6                	sub    %eax,%esi
    1539:	c1 fe 02             	sar    $0x2,%esi
    153c:	74 1f                	je     155d <__libc_csu_init+0x4d>
    153e:	31 ff                	xor    %edi,%edi
    1540:	83 ec 04             	sub    $0x4,%esp
    1543:	55                   	push   %ebp
    1544:	ff 74 24 2c          	pushl  0x2c(%esp)
    1548:	ff 74 24 2c          	pushl  0x2c(%esp)
    154c:	ff 94 bb 00 ff ff ff 	call   *-0x100(%ebx,%edi,4)
    1553:	83 c7 01             	add    $0x1,%edi
    1556:	83 c4 10             	add    $0x10,%esp
    1559:	39 fe                	cmp    %edi,%esi
    155b:	75 e3                	jne    1540 <__libc_csu_init+0x30>
    155d:	83 c4 0c             	add    $0xc,%esp
    1560:	5b                   	pop    %ebx
    1561:	5e                   	pop    %esi
    1562:	5f                   	pop    %edi
    1563:	5d                   	pop    %ebp
    1564:	c3                   	ret    
    1565:	8d b4 26 00 00 00 00 	lea    0x0(%esi,%eiz,1),%esi
    156c:	8d 74 26 00          	lea    0x0(%esi,%eiz,1),%esi

00001570 <__libc_csu_fini>:
    1570:	c3                   	ret    

Disassembly of section .fini:

00001574 <_fini>:
    1574:	53                   	push   %ebx
    1575:	83 ec 08             	sub    $0x8,%esp
    1578:	e8 53 fb ff ff       	call   10d0 <__x86.get_pc_thunk.bx>
    157d:	81 c3 4f 2a 00 00    	add    $0x2a4f,%ebx
    1583:	83 c4 08             	add    $0x8,%esp
    1586:	5b                   	pop    %ebx
    1587:	c3                   	ret    
